; ModuleID = 'bench/opencv/original/CmFile.ll'
source_filename = "bench/opencv/original/CmFile.ll"
target datalayout = "e-m:e-p270:32:32-p271:32:32-p272:64:64-i64:64-i128:128-f80:128-n8:16:32:64-S128"
target triple = "x86_64-pc-linux-gnu"

%"class.std::ios_base::Init" = type { i8 }

@_ZStL8__ioinit = internal global %"class.std::ios_base::Init" zeroinitializer, align 1
@__dso_handle = external hidden global i8
@_ZZN2cv8saliency6CmFile5MkDirERNSt7__cxx1112basic_stringIcSt11char_traitsIcESaIcEEEE6buffer = internal global [1024 x i8] zeroinitializer, align 16
@llvm.global_ctors = appending global [1 x { i32, ptr, ptr }] [{ i32, ptr, ptr } { i32 65535, ptr @_GLOBAL__sub_I_CmFile.cpp, ptr null }]

declare void @_ZNSt8ios_base4InitC1Ev(ptr noundef nonnull align 1 dereferenceable(1)) unnamed_addr #0

; Function Attrs: nounwind
declare void @_ZNSt8ios_base4InitD1Ev(ptr noundef nonnull align 1 dereferenceable(1)) unnamed_addr #1

; Function Attrs: nofree nounwind
declare i32 @__cxa_atexit(ptr, ptr, ptr) local_unnamed_addr #2

; Function Attrs: mustprogress nofree nounwind uwtable
define hidden noundef zeroext i1 @_ZN2cv8saliency6CmFile5MkDirERNSt7__cxx1112basic_stringIcSt11char_traitsIcESaIcEEE(ptr noundef nonnull readonly align 8 captures(none) dereferenceable(32) %0) local_unnamed_addr #3 align 2 personality ptr @__gxx_personality_v0 {
  %2 = getelementptr inbounds nuw i8, ptr %0, i64 8
  %3 = load i64, ptr %2, align 8, !tbaa !3
  %4 = icmp ne i64 %3, 0
  br i1 %4, label %5, label %17

5:                                                ; preds = %1
  %6 = load ptr, ptr %0, align 8, !tbaa !11
  %7 = tail call ptr @strcpy(ptr noundef nonnull dereferenceable(1) @_ZZN2cv8saliency6CmFile5MkDirERNSt7__cxx1112basic_stringIcSt11char_traitsIcESaIcEEEE6buffer, ptr noundef nonnull dereferenceable(1) %6) #7
  br label %8

8:                                                ; preds = %16, %5
  %indvars.iv = phi i64 [ %indvars.iv.next, %16 ], [ 0, %5 ]
  %9 = getelementptr inbounds nuw [1024 x i8], ptr @_ZZN2cv8saliency6CmFile5MkDirERNSt7__cxx1112basic_stringIcSt11char_traitsIcESaIcEEEE6buffer, i64 0, i64 %indvars.iv
  %10 = load i8, ptr %9, align 1, !tbaa !12
  switch i8 %10, label %16 [
    i8 0, label %11
    i8 92, label %14
    i8 47, label %14
  ]

11:                                               ; preds = %8
  %12 = load ptr, ptr %0, align 8, !tbaa !11
  %13 = tail call i32 @mkdir(ptr noundef %12, i32 noundef 509) #7
  br label %17

14:                                               ; preds = %8, %8
  store i8 0, ptr %9, align 1, !tbaa !12
  %15 = tail call i32 @mkdir(ptr noundef nonnull @_ZZN2cv8saliency6CmFile5MkDirERNSt7__cxx1112basic_stringIcSt11char_traitsIcESaIcEEEE6buffer, i32 noundef 0) #7
  store i8 47, ptr %9, align 1, !tbaa !12
  br label %16

16:                                               ; preds = %8, %14
  %indvars.iv.next = add nuw nsw i64 %indvars.iv, 1
  br label %8, !llvm.loop !13

17:                                               ; preds = %1, %11
  ret i1 %4
}

; Function Attrs: mustprogress nofree nounwind willreturn memory(argmem: readwrite)
declare ptr @strcpy(ptr noalias noundef returned writeonly, ptr noalias noundef readonly captures(none)) local_unnamed_addr #4

; Function Attrs: nofree nounwind
declare noundef i32 @mkdir(ptr noundef readonly captures(none), i32 noundef) local_unnamed_addr #5

declare i32 @__gxx_personality_v0(...)

; Function Attrs: uwtable
define internal void @_GLOBAL__sub_I_CmFile.cpp() #6 section ".text.startup" {
  tail call void @_ZNSt8ios_base4InitC1Ev(ptr noundef nonnull align 1 dereferenceable(1) @_ZStL8__ioinit)
  %1 = tail call i32 @__cxa_atexit(ptr nonnull @_ZNSt8ios_base4InitD1Ev, ptr nonnull @_ZStL8__ioinit, ptr nonnull @__dso_handle) #7
  ret void
}


!llvm.module.flags = !{!0, !1, !2}

!0 = !{i32 1, !"wchar_size", i32 4}
!1 = !{i32 8, !"PIC Level", i32 2}
!2 = !{i32 7, !"uwtable", i32 2}
!3 = !{!4, !10, i64 8}
!4 = !{!"_ZTSNSt7__cxx1112basic_stringIcSt11char_traitsIcESaIcEEE", !5, i64 0, !10, i64 8, !8, i64 16}
!5 = !{!"_ZTSNSt7__cxx1112basic_stringIcSt11char_traitsIcESaIcEE12_Alloc_hiderE", !6, i64 0}
!6 = !{!"p1 omnipotent char", !7, i64 0}
!7 = !{!"any pointer", !8, i64 0}
!8 = !{!"omnipotent char", !9, i64 0}
!9 = !{!"Simple C++ TBAA"}
!10 = !{!"long", !8, i64 0}
!11 = !{!4, !6, i64 0}
!12 = !{!8, !8, i64 0}
!13 = distinct !{!13, !14}
!14 = !{!"llvm.loop.mustprogress"}
